target datalayout = "e-m:e-p270:32:32-p271:32:32-p272:64:64-i64:64-i128:128-f80:128-n8:16:32:64-S128"
target triple = "x86_64-unknown-linux-gnu"

%struct.QObjectBase_ = type { i32, i64 }
%struct.BlockPermissionList = type { ptr, i32 }
%struct.QDict = type { %struct.QObjectBase_, i64, [512 x %struct.anon.22] }
%struct.anon.22 = type { ptr }
%struct.QObject = type { %struct.QObjectBase_ }

@.str.48 = private unnamed_addr constant [25 x i8] c"!obj || obj->base.refcnt\00", align 1
@.str.49 = private unnamed_addr constant [105 x i8] c"/home/dtcxzyw/WorkSpace/Projects/compilers/llvm-opt-benchmark/bench/qemu/qemu/include/qapi/qmp/qobject.h\00", align 1
@__PRETTY_FUNCTION__.qobject_unref_impl = private unnamed_addr constant [35 x i8] c"void qobject_unref_impl(QObject *)\00", align 1

; Function Attrs: nounwind sspstrong uwtable
define internal void @qobject_unref_impl(ptr noundef %obj) #0 {
entry:
  %obj.addr = alloca ptr, align 8
  store ptr %obj, ptr %obj.addr, align 8
  %0 = load ptr, ptr %obj.addr, align 8
  %tobool = icmp ne ptr %0, null
  br i1 %tobool, label %lor.lhs.false, label %if.then

lor.lhs.false:                                    ; preds = %entry
  %1 = load ptr, ptr %obj.addr, align 8
  %base = getelementptr inbounds %struct.QObject, ptr %1, i32 0, i32 0
  %refcnt = getelementptr inbounds %struct.QObjectBase_, ptr %base, i32 0, i32 1
  %2 = load i64, ptr %refcnt, align 8
  %tobool1 = icmp ne i64 %2, 0
  br i1 %tobool1, label %if.then, label %if.else

if.then:                                          ; preds = %lor.lhs.false, %entry
  br label %if.end

if.else:                                          ; preds = %lor.lhs.false
  call void @__assert_fail(ptr noundef @.str.48, ptr noundef @.str.49, i32 noundef 97, ptr noundef @__PRETTY_FUNCTION__.qobject_unref_impl) #15
  unreachable

if.end:                                           ; preds = %if.then
  %3 = load ptr, ptr %obj.addr, align 8
  %tobool2 = icmp ne ptr %3, null
  br i1 %tobool2, label %land.lhs.true, label %if.end6

land.lhs.true:                                    ; preds = %if.end
  %4 = load ptr, ptr %obj.addr, align 8
  %base3 = getelementptr inbounds %struct.QObject, ptr %4, i32 0, i32 0
  %refcnt4 = getelementptr inbounds %struct.QObjectBase_, ptr %base3, i32 0, i32 1
  %5 = load i64, ptr %refcnt4, align 8
  %dec = add i64 %5, -1
  store i64 %dec, ptr %refcnt4, align 8
  %cmp = icmp eq i64 %dec, 0
  br i1 %cmp, label %if.then5, label %if.end6

if.then5:                                         ; preds = %land.lhs.true
  %6 = load ptr, ptr %obj.addr, align 8
  call void @qobject_destroy(ptr noundef %6)
  br label %if.end6

if.end6:                                          ; preds = %if.then5, %land.lhs.true, %if.end
  ret void
}

; Function Attrs: nounwind sspstrong uwtable
define internal i32 @blkdebug_parse_perm_list(ptr noundef %dest, ptr noundef %options, ptr noundef %prefix, ptr noundef %errp) #0 {
entry:
  %dest.addr = alloca ptr, align 8
  %options.addr = alloca ptr, align 8
  %prefix.addr = alloca ptr, align 8
  %errp.addr = alloca ptr, align 8
  %ret = alloca i32, align 4
  %subqdict = alloca ptr, align 8
  %crumpled_subqdict = alloca ptr, align 8
  %v = alloca ptr, align 8
  %perm_list = alloca ptr, align 8
  %element = alloca ptr, align 8
  %_obj5 = alloca ptr, align 8
  %tmp = alloca ptr, align 8
  %__mptr = alloca ptr, align 8
  %tmp12 = alloca ptr, align 8
  %_obj6 = alloca ptr, align 8
  %tmp13 = alloca ptr, align 8
  %__mptr16 = alloca ptr, align 8
  %tmp18 = alloca ptr, align 8
  store ptr %dest, ptr %dest.addr, align 8
  store ptr %options, ptr %options.addr, align 8
  store ptr %prefix, ptr %prefix.addr, align 8
  store ptr %errp, ptr %errp.addr, align 8
  store i32 0, ptr %ret, align 4
  store ptr null, ptr %subqdict, align 8
  store ptr null, ptr %crumpled_subqdict, align 8
  store ptr null, ptr %v, align 8
  store ptr null, ptr %perm_list, align 8
  %0 = load ptr, ptr %dest.addr, align 8
  store i64 0, ptr %0, align 8
  %1 = load ptr, ptr %options.addr, align 8
  %2 = load ptr, ptr %prefix.addr, align 8
  call void @qdict_extract_subqdict(ptr noundef %1, ptr noundef %subqdict, ptr noundef %2)
  %3 = load ptr, ptr %subqdict, align 8
  %call = call i64 @qdict_size(ptr noundef %3)
  %tobool = icmp ne i64 %call, 0
  br i1 %tobool, label %if.end, label %if.then

if.then:                                          ; preds = %entry
  br label %out

if.end:                                           ; preds = %entry
  %4 = load ptr, ptr %subqdict, align 8
  %5 = load ptr, ptr %errp.addr, align 8
  %call1 = call ptr @qdict_crumple(ptr noundef %4, ptr noundef %5)
  store ptr %call1, ptr %crumpled_subqdict, align 8
  %6 = load ptr, ptr %crumpled_subqdict, align 8
  %tobool2 = icmp ne ptr %6, null
  br i1 %tobool2, label %if.end4, label %if.then3

if.then3:                                         ; preds = %if.end
  store i32 -22, ptr %ret, align 4
  br label %out

if.end4:                                          ; preds = %if.end
  %7 = load ptr, ptr %crumpled_subqdict, align 8
  %call5 = call ptr @qobject_input_visitor_new(ptr noundef %7)
  store ptr %call5, ptr %v, align 8
  %8 = load ptr, ptr %v, align 8
  %9 = load ptr, ptr %errp.addr, align 8
  %call6 = call zeroext i1 @visit_type_BlockPermissionList(ptr noundef %8, ptr noundef null, ptr noundef %perm_list, ptr noundef %9)
  br i1 %call6, label %if.end8, label %if.then7

if.then7:                                         ; preds = %if.end4
  store i32 -22, ptr %ret, align 4
  br label %out

if.end8:                                          ; preds = %if.end4
  %10 = load ptr, ptr %perm_list, align 8
  store ptr %10, ptr %element, align 8
  br label %for.cond

for.cond:                                         ; preds = %for.inc, %if.end8
  %11 = load ptr, ptr %element, align 8
  %tobool9 = icmp ne ptr %11, null
  br i1 %tobool9, label %for.body, label %for.end

for.body:                                         ; preds = %for.cond
  %12 = load ptr, ptr %element, align 8
  %value = getelementptr inbounds %struct.BlockPermissionList, ptr %12, i32 0, i32 1
  %13 = load i32, ptr %value, align 8
  %call10 = call i64 @bdrv_qapi_perm_to_blk_perm(i32 noundef %13)
  %14 = load ptr, ptr %dest.addr, align 8
  %15 = load i64, ptr %14, align 8
  %or = or i64 %15, %call10
  store i64 %or, ptr %14, align 8
  br label %for.inc

for.inc:                                          ; preds = %for.body
  %16 = load ptr, ptr %element, align 8
  %next = getelementptr inbounds %struct.BlockPermissionList, ptr %16, i32 0, i32 0
  %17 = load ptr, ptr %next, align 8
  store ptr %17, ptr %element, align 8
  br label %for.cond, !llvm.loop !15

for.end:                                          ; preds = %for.cond
  br label %out

out:                                              ; preds = %for.end, %if.then7, %if.then3, %if.then
  %18 = load ptr, ptr %perm_list, align 8
  call void @qapi_free_BlockPermissionList(ptr noundef %18)
  %19 = load ptr, ptr %v, align 8
  call void @visit_free(ptr noundef %19)
  %20 = load ptr, ptr %subqdict, align 8
  store ptr %20, ptr %_obj5, align 8
  %21 = load ptr, ptr %_obj5, align 8
  %tobool11 = icmp ne ptr %21, null
  br i1 %tobool11, label %cond.true, label %cond.false

cond.true:                                        ; preds = %out
  %22 = load ptr, ptr %_obj5, align 8
  %base = getelementptr inbounds %struct.QDict, ptr %22, i32 0, i32 0
  store ptr %base, ptr %__mptr, align 8
  %23 = load ptr, ptr %__mptr, align 8
  %add.ptr = getelementptr i8, ptr %23, i64 0
  store ptr %add.ptr, ptr %tmp12, align 8
  %24 = load ptr, ptr %tmp12, align 8
  br label %cond.end

cond.false:                                       ; preds = %out
  br label %cond.end

cond.end:                                         ; preds = %cond.false, %cond.true
  %cond = phi ptr [ %24, %cond.true ], [ null, %cond.false ]
  store ptr %cond, ptr %tmp, align 8
  %25 = load ptr, ptr %tmp, align 8
  call void @qobject_unref_impl(ptr noundef %25)
  %26 = load ptr, ptr %crumpled_subqdict, align 8
  store ptr %26, ptr %_obj6, align 8
  %27 = load ptr, ptr %_obj6, align 8
  %tobool14 = icmp ne ptr %27, null
  br i1 %tobool14, label %cond.true15, label %cond.false20

cond.true15:                                      ; preds = %cond.end
  %28 = load ptr, ptr %_obj6, align 8
  %base17 = getelementptr inbounds %struct.QObject, ptr %28, i32 0, i32 0
  store ptr %base17, ptr %__mptr16, align 8
  %29 = load ptr, ptr %__mptr16, align 8
  %add.ptr19 = getelementptr i8, ptr %29, i64 0
  store ptr %add.ptr19, ptr %tmp18, align 8
  %30 = load ptr, ptr %tmp18, align 8
  br label %cond.end21

cond.false20:                                     ; preds = %cond.end
  br label %cond.end21

cond.end21:                                       ; preds = %cond.false20, %cond.true15
  %cond22 = phi ptr [ %30, %cond.true15 ], [ null, %cond.false20 ]
  store ptr %cond22, ptr %tmp13, align 8
  %31 = load ptr, ptr %tmp13, align 8
  call void @qobject_unref_impl(ptr noundef %31)
  %32 = load i32, ptr %ret, align 4
  ret i32 %32
}