; Function Attrs: nounwind sspstrong uwtable
define internal fastcc range(i32 -22, 1) i32 @blkdebug_parse_perm_list(ptr noundef captures(none) initializes((0, 8)) %dest, ptr noundef %options, ptr noundef %prefix, ptr noundef %errp) unnamed_addr #0 {
entry:
  %subqdict = alloca ptr, align 8
  %perm_list = alloca ptr, align 8
  store ptr null, ptr %subqdict, align 8
  store ptr null, ptr %perm_list, align 8
  store i64 0, ptr %dest, align 8
  call void @qdict_extract_subqdict(ptr noundef %options, ptr noundef nonnull %subqdict, ptr noundef %prefix) #13
  %0 = load ptr, ptr %subqdict, align 8
  %call = call i64 @qdict_size(ptr noundef %0) #13
  %tobool.not = icmp eq i64 %call, 0
  br i1 %tobool.not, label %out, label %if.end

if.end:                                           ; preds = %entry
  %1 = load ptr, ptr %subqdict, align 8
  %call1 = call ptr @qdict_crumple(ptr noundef %1, ptr noundef %errp) #13
  %tobool2.not = icmp eq ptr %call1, null
  br i1 %tobool2.not, label %out, label %if.end4

if.end4:                                          ; preds = %if.end
  %call5 = call ptr @qobject_input_visitor_new(ptr noundef nonnull %call1) #13
  %call6 = call zeroext i1 @visit_type_BlockPermissionList(ptr noundef %call5, ptr noundef null, ptr noundef nonnull %perm_list, ptr noundef %errp) #13
  %.pre22 = load ptr, ptr %perm_list, align 8
  br i1 %call6, label %for.cond.preheader, label %out

for.cond.preheader:                               ; preds = %if.end4
  %tobool9.not20 = icmp eq ptr %.pre22, null
  br i1 %tobool9.not20, label %out, label %for.body

for.body:                                         ; preds = %for.cond.preheader, %for.body
  %element.021 = phi ptr [ %element.0, %for.body ], [ %.pre22, %for.cond.preheader ]
  %value = getelementptr inbounds nuw i8, ptr %element.021, i64 8
  %2 = load i32, ptr %value, align 8
  %call10 = call i64 @bdrv_qapi_perm_to_blk_perm(i32 noundef %2) #13
  %3 = load i64, ptr %dest, align 8
  %or = or i64 %3, %call10
  store i64 %or, ptr %dest, align 8
  %element.0 = load ptr, ptr %element.021, align 8
  %tobool9.not = icmp eq ptr %element.0, null
  br i1 %tobool9.not, label %out.loopexit, label %for.body, !llvm.loop !14

out.loopexit:                                     ; preds = %for.body
  %.pre = load ptr, ptr %perm_list, align 8
  br label %out

out:                                              ; preds = %out.loopexit, %for.cond.preheader, %if.end4, %if.end, %entry
  %4 = phi ptr [ null, %entry ], [ null, %if.end ], [ %.pre22, %if.end4 ], [ null, %for.cond.preheader ], [ %.pre, %out.loopexit ]
  %v.0 = phi ptr [ null, %entry ], [ null, %if.end ], [ %call5, %if.end4 ], [ %call5, %for.cond.preheader ], [ %call5, %out.loopexit ]
  %crumpled_subqdict.0 = phi ptr [ null, %entry ], [ null, %if.end ], [ %call1, %if.end4 ], [ %call1, %for.cond.preheader ], [ %call1, %out.loopexit ]
  %ret.0 = phi i32 [ 0, %entry ], [ -22, %if.end ], [ -22, %if.end4 ], [ 0, %for.cond.preheader ], [ 0, %out.loopexit ]
  call void @qapi_free_BlockPermissionList(ptr noundef %4) #13
  call void @visit_free(ptr noundef %v.0) #13
  %5 = load ptr, ptr %subqdict, align 8
  %tobool11.not = icmp eq ptr %5, null
  br i1 %tobool11.not, label %qobject_unref_impl.exit, label %lor.lhs.false.i

lor.lhs.false.i:                                  ; preds = %out
  %refcnt.i = getelementptr inbounds nuw i8, ptr %5, i64 8
  %6 = load i64, ptr %refcnt.i, align 8
  %tobool1.not.i = icmp eq i64 %6, 0
  br i1 %tobool1.not.i, label %if.else.i, label %land.lhs.true.i

if.else.i:                                        ; preds = %lor.lhs.false.i
  call void @__assert_fail(ptr noundef nonnull @.str.48, ptr noundef nonnull @.str.49, i32 noundef 97, ptr noundef nonnull @__PRETTY_FUNCTION__.qobject_unref_impl) #17
  unreachable

land.lhs.true.i:                                  ; preds = %lor.lhs.false.i
  %dec.i = add i64 %6, -1
  store i64 %dec.i, ptr %refcnt.i, align 8
  %cmp.i = icmp eq i64 %dec.i, 0
  br i1 %cmp.i, label %if.then5.i, label %qobject_unref_impl.exit

if.then5.i:                                       ; preds = %land.lhs.true.i
  call void @qobject_destroy(ptr noundef nonnull %5) #13
  br label %qobject_unref_impl.exit

qobject_unref_impl.exit:                          ; preds = %out, %land.lhs.true.i, %if.then5.i
  %tobool14.not = icmp eq ptr %crumpled_subqdict.0, null
  br i1 %tobool14.not, label %qobject_unref_impl.exit18, label %lor.lhs.false.i10

lor.lhs.false.i10:                                ; preds = %qobject_unref_impl.exit
  %refcnt.i11 = getelementptr inbounds nuw i8, ptr %crumpled_subqdict.0, i64 8
  %7 = load i64, ptr %refcnt.i11, align 8
  %tobool1.not.i12 = icmp eq i64 %7, 0
  br i1 %tobool1.not.i12, label %if.else.i17, label %land.lhs.true.i13

if.else.i17:                                      ; preds = %lor.lhs.false.i10
  call void @__assert_fail(ptr noundef nonnull @.str.48, ptr noundef nonnull @.str.49, i32 noundef 97, ptr noundef nonnull @__PRETTY_FUNCTION__.qobject_unref_impl) #17
  unreachable

land.lhs.true.i13:                                ; preds = %lor.lhs.false.i10
  %dec.i14 = add i64 %7, -1
  store i64 %dec.i14, ptr %refcnt.i11, align 8
  %cmp.i15 = icmp eq i64 %dec.i14, 0
  br i1 %cmp.i15, label %if.then5.i16, label %qobject_unref_impl.exit18

if.then5.i16:                                     ; preds = %land.lhs.true.i13
  call void @qobject_destroy(ptr noundef nonnull %crumpled_subqdict.0) #13
  br label %qobject_unref_impl.exit18

qobject_unref_impl.exit18:                        ; preds = %qobject_unref_impl.exit, %land.lhs.true.i13, %if.then5.i16
  ret i32 %ret.0
}